; Function Attrs: mustprogress uwtable
define hidden void @_ZN4cvc58internal7Sampler13pickFpUniformEjj(ptr dead_on_unwind noalias writable sret(%"class.cvc5::internal::FloatingPoint") align 8 %0, i32 noundef %1, i32 noundef %2) local_unnamed_addr #3 align 2 personality ptr @__gxx_personality_v0 {
  %4 = alloca %"class.cvc5::internal::BitVector", align 8
  call void @llvm.lifetime.start.p0(i64 24, ptr nonnull %4) #15
  %5 = add i32 %2, %1
  call void @_ZN4cvc58internal7Sampler13pickBvUniformEj(ptr dead_on_unwind nonnull writable sret(%"class.cvc5::internal::BitVector") align 8 %4, i32 noundef %5)
  invoke void @_ZN4cvc58internal13FloatingPointC1EjjRKNS0_9BitVectorE(ptr noundef nonnull align 8 dereferenceable(8) %0, i32 noundef %1, i32 noundef %2, ptr noundef nonnull align 8 dereferenceable(24) %4)
          to label %6 unwind label %11

6:                                                ; preds = %3
  %7 = getelementptr inbounds nuw i8, ptr %4, i64 8
  invoke void @__gmpz_clear(ptr noundef nonnull align 8 dereferenceable(16) %7)
          to label %_ZN4cvc58internal9BitVectorD2Ev.exit unwind label %8

8:                                                ; preds = %6
  %9 = landingpad { ptr, i32 }
          catch ptr null
  %10 = extractvalue { ptr, i32 } %9, 0
  call void @__clang_call_terminate(ptr %10) #17
  unreachable

_ZN4cvc58internal9BitVectorD2Ev.exit:             ; preds = %6
  call void @llvm.lifetime.end.p0(i64 24, ptr nonnull %4) #15
  ret void

11:                                               ; preds = %3
  %12 = landingpad { ptr, i32 }
          cleanup
  %13 = getelementptr inbounds nuw i8, ptr %4, i64 8
  invoke void @__gmpz_clear(ptr noundef nonnull align 8 dereferenceable(16) %13)
          to label %_ZN4cvc58internal9BitVectorD2Ev.exit5 unwind label %14

14:                                               ; preds = %11
  %15 = landingpad { ptr, i32 }
          catch ptr null
  %16 = extractvalue { ptr, i32 } %15, 0
  call void @__clang_call_terminate(ptr %16) #17
  unreachable

_ZN4cvc58internal9BitVectorD2Ev.exit5:            ; preds = %11
  call void @llvm.lifetime.end.p0(i64 24, ptr nonnull %4) #15
  resume { ptr, i32 } %12
}